target datalayout = "e-m:e-p270:32:32-p271:32:32-p272:64:64-i64:64-i128:128-f80:128-n8:16:32:64-S128"
target triple = "x86_64-pc-linux-gnu"

%struct.FmgrInfo = type { ptr, i32, i16, i8, i8, i8, ptr, ptr, ptr }
%struct.ArrayMetaState = type { i32, i16, i8, i8, i8, i32, i32, %struct.FmgrInfo }
%struct.ArrayType = type { i32, i32, i32, i32 }
%struct.ArrayIteratorData = type { ptr, ptr, i32, i16, i8, i8, i32, i32, ptr, ptr, ptr, ptr, ptr, i32 }

@.str.2 = private unnamed_addr constant [13 x i8] c"arrayfuncs.c\00", align 1
@.str.34 = private unnamed_addr constant [43 x i8] c"invalid arguments to array_create_iterator\00", align 1
@__func__.array_create_iterator = private unnamed_addr constant [22 x i8] c"array_create_iterator\00", align 1

; Function Attrs: nounwind uwtable
define dso_local ptr @array_create_iterator(ptr noundef %0, i32 noundef %1, ptr noundef %2) #0 {
  %4 = alloca ptr, align 8
  %5 = alloca i32, align 4
  %6 = alloca ptr, align 8
  %7 = alloca ptr, align 8
  store ptr %0, ptr %4, align 8
  store i32 %1, ptr %5, align 4
  store ptr %2, ptr %6, align 8
  call void @llvm.lifetime.start.p0(i64 8, ptr %7) #11
  %8 = call ptr @palloc0(i64 noundef 80)
  store ptr %8, ptr %7, align 8
  %9 = load i32, ptr %5, align 4
  %10 = icmp slt i32 %9, 0
  br i1 %10, label %17, label %11

11:                                               ; preds = %3
  %12 = load i32, ptr %5, align 4
  %13 = load ptr, ptr %4, align 8
  %14 = getelementptr inbounds nuw %struct.ArrayType, ptr %13, i32 0, i32 1
  %15 = load i32, ptr %14, align 4
  %16 = icmp sgt i32 %12, %15
  br i1 %16, label %17, label %28

17:                                               ; preds = %11, %3
  br label %18

18:                                               ; preds = %17
  br i1 true, label %19, label %21

19:                                               ; preds = %18
  %20 = call zeroext i1 @errstart_cold(i32 noundef 21, ptr noundef null) #13
  br i1 %20, label %23, label %25

21:                                               ; preds = %18
  %22 = call zeroext i1 @errstart(i32 noundef 21, ptr noundef null)
  br i1 %22, label %23, label %25

23:                                               ; preds = %21, %19
  %24 = call i32 (ptr, ...) @errmsg_internal(ptr noundef @.str.34)
  call void @errfinish(ptr noundef @.str.2, i32 noundef 4606, ptr noundef @__func__.array_create_iterator)
  br label %25

25:                                               ; preds = %23, %21, %19
  unreachable

26:                                               ; No predecessors!
  br label %27

27:                                               ; preds = %26
  br label %28

28:                                               ; preds = %27, %11
  %29 = load ptr, ptr %4, align 8
  %30 = load ptr, ptr %7, align 8
  %31 = getelementptr inbounds nuw %struct.ArrayIteratorData, ptr %30, i32 0, i32 0
  store ptr %29, ptr %31, align 8
  %32 = load ptr, ptr %4, align 8
  %33 = getelementptr inbounds nuw %struct.ArrayType, ptr %32, i32 0, i32 2
  %34 = load i32, ptr %33, align 4
  %35 = icmp ne i32 %34, 0
  br i1 %35, label %36, label %45

36:                                               ; preds = %28
  %37 = load ptr, ptr %4, align 8
  %38 = getelementptr inbounds nuw i8, ptr %37, i64 16
  %39 = load ptr, ptr %4, align 8
  %40 = getelementptr inbounds nuw %struct.ArrayType, ptr %39, i32 0, i32 1
  %41 = load i32, ptr %40, align 4
  %42 = sext i32 %41 to i64
  %43 = mul i64 8, %42
  %44 = getelementptr inbounds nuw i8, ptr %38, i64 %43
  br label %46

45:                                               ; preds = %28
  br label %46

46:                                               ; preds = %45, %36
  %47 = phi ptr [ %44, %36 ], [ null, %45 ]
  %48 = load ptr, ptr %7, align 8
  %49 = getelementptr inbounds nuw %struct.ArrayIteratorData, ptr %48, i32 0, i32 1
  store ptr %47, ptr %49, align 8
  %50 = load ptr, ptr %4, align 8
  %51 = getelementptr inbounds nuw %struct.ArrayType, ptr %50, i32 0, i32 1
  %52 = load i32, ptr %51, align 4
  %53 = load ptr, ptr %4, align 8
  %54 = getelementptr inbounds nuw i8, ptr %53, i64 16
  %55 = call i32 @ArrayGetNItems(i32 noundef %52, ptr noundef %54)
  %56 = load ptr, ptr %7, align 8
  %57 = getelementptr inbounds nuw %struct.ArrayIteratorData, ptr %56, i32 0, i32 2
  store i32 %55, ptr %57, align 8
  %58 = load ptr, ptr %6, align 8
  %59 = icmp ne ptr %58, null
  br i1 %59, label %60, label %78

60:                                               ; preds = %46
  %61 = load ptr, ptr %6, align 8
  %62 = getelementptr inbounds nuw %struct.ArrayMetaState, ptr %61, i32 0, i32 1
  %63 = load i16, ptr %62, align 4
  %64 = load ptr, ptr %7, align 8
  %65 = getelementptr inbounds nuw %struct.ArrayIteratorData, ptr %64, i32 0, i32 3
  store i16 %63, ptr %65, align 4
  %66 = load ptr, ptr %6, align 8
  %67 = getelementptr inbounds nuw %struct.ArrayMetaState, ptr %66, i32 0, i32 2
  %68 = load i8, ptr %67, align 2, !range !4, !noundef !5
  %69 = trunc i8 %68 to i1
  %70 = load ptr, ptr %7, align 8
  %71 = getelementptr inbounds nuw %struct.ArrayIteratorData, ptr %70, i32 0, i32 4
  %72 = zext i1 %69 to i8
  store i8 %72, ptr %71, align 2
  %73 = load ptr, ptr %6, align 8
  %74 = getelementptr inbounds nuw %struct.ArrayMetaState, ptr %73, i32 0, i32 3
  %75 = load i8, ptr %74, align 1
  %76 = load ptr, ptr %7, align 8
  %77 = getelementptr inbounds nuw %struct.ArrayIteratorData, ptr %76, i32 0, i32 5
  store i8 %75, ptr %77, align 1
  br label %88

78:                                               ; preds = %46
  %79 = load ptr, ptr %4, align 8
  %80 = getelementptr inbounds nuw %struct.ArrayType, ptr %79, i32 0, i32 3
  %81 = load i32, ptr %80, align 4
  %82 = load ptr, ptr %7, align 8
  %83 = getelementptr inbounds nuw %struct.ArrayIteratorData, ptr %82, i32 0, i32 3
  %84 = load ptr, ptr %7, align 8
  %85 = getelementptr inbounds nuw %struct.ArrayIteratorData, ptr %84, i32 0, i32 4
  %86 = load ptr, ptr %7, align 8
  %87 = getelementptr inbounds nuw %struct.ArrayIteratorData, ptr %86, i32 0, i32 5
  call void @get_typlenbyvalalign(i32 noundef %81, ptr noundef %83, ptr noundef %85, ptr noundef %87)
  br label %88

88:                                               ; preds = %78, %60
  %89 = load i32, ptr %5, align 4
  %90 = load ptr, ptr %7, align 8
  %91 = getelementptr inbounds nuw %struct.ArrayIteratorData, ptr %90, i32 0, i32 6
  store i32 %89, ptr %91, align 8
  %92 = load i32, ptr %5, align 4
  %93 = icmp sgt i32 %92, 0
  br i1 %93, label %94, label %150

94:                                               ; preds = %88
  %95 = load ptr, ptr %4, align 8
  %96 = getelementptr inbounds nuw i8, ptr %95, i64 16
  %97 = load ptr, ptr %4, align 8
  %98 = getelementptr inbounds nuw %struct.ArrayType, ptr %97, i32 0, i32 1
  %99 = load i32, ptr %98, align 4
  %100 = sext i32 %99 to i64
  %101 = getelementptr inbounds i32, ptr %96, i64 %100
  %102 = load i32, ptr %5, align 4
  %103 = sext i32 %102 to i64
  %104 = sub i64 0, %103
  %105 = getelementptr inbounds i32, ptr %101, i64 %104
  %106 = load ptr, ptr %7, align 8
  %107 = getelementptr inbounds nuw %struct.ArrayIteratorData, ptr %106, i32 0, i32 8
  store ptr %105, ptr %107, align 8
  %108 = load ptr, ptr %4, align 8
  %109 = getelementptr inbounds nuw i8, ptr %108, i64 16
  %110 = load ptr, ptr %4, align 8
  %111 = getelementptr inbounds nuw %struct.ArrayType, ptr %110, i32 0, i32 1
  %112 = load i32, ptr %111, align 4
  %113 = sext i32 %112 to i64
  %114 = mul i64 4, %113
  %115 = getelementptr inbounds nuw i8, ptr %109, i64 %114
  %116 = load ptr, ptr %4, align 8
  %117 = getelementptr inbounds nuw %struct.ArrayType, ptr %116, i32 0, i32 1
  %118 = load i32, ptr %117, align 4
  %119 = sext i32 %118 to i64
  %120 = getelementptr inbounds i32, ptr %115, i64 %119
  %121 = load i32, ptr %5, align 4
  %122 = sext i32 %121 to i64
  %123 = sub i64 0, %122
  %124 = getelementptr inbounds i32, ptr %120, i64 %123
  %125 = load ptr, ptr %7, align 8
  %126 = getelementptr inbounds nuw %struct.ArrayIteratorData, ptr %125, i32 0, i32 9
  store ptr %124, ptr %126, align 8
  %127 = load i32, ptr %5, align 4
  %128 = load ptr, ptr %7, align 8
  %129 = getelementptr inbounds nuw %struct.ArrayIteratorData, ptr %128, i32 0, i32 8
  %130 = load ptr, ptr %129, align 8
  %131 = call i32 @ArrayGetNItems(i32 noundef %127, ptr noundef %130)
  %132 = load ptr, ptr %7, align 8
  %133 = getelementptr inbounds nuw %struct.ArrayIteratorData, ptr %132, i32 0, i32 7
  store i32 %131, ptr %133, align 4
  %134 = load ptr, ptr %7, align 8
  %135 = getelementptr inbounds nuw %struct.ArrayIteratorData, ptr %134, i32 0, i32 7
  %136 = load i32, ptr %135, align 4
  %137 = sext i32 %136 to i64
  %138 = mul i64 %137, 8
  %139 = call ptr @palloc(i64 noundef %138)
  %140 = load ptr, ptr %7, align 8
  %141 = getelementptr inbounds nuw %struct.ArrayIteratorData, ptr %140, i32 0, i32 10
  store ptr %139, ptr %141, align 8
  %142 = load ptr, ptr %7, align 8
  %143 = getelementptr inbounds nuw %struct.ArrayIteratorData, ptr %142, i32 0, i32 7
  %144 = load i32, ptr %143, align 4
  %145 = sext i32 %144 to i64
  %146 = mul i64 %145, 1
  %147 = call ptr @palloc(i64 noundef %146)
  %148 = load ptr, ptr %7, align 8
  %149 = getelementptr inbounds nuw %struct.ArrayIteratorData, ptr %148, i32 0, i32 11
  store ptr %147, ptr %149, align 8
  br label %150

150:                                              ; preds = %94, %88
  %151 = load ptr, ptr %4, align 8
  %152 = load ptr, ptr %4, align 8
  %153 = getelementptr inbounds nuw %struct.ArrayType, ptr %152, i32 0, i32 2
  %154 = load i32, ptr %153, align 4
  %155 = icmp ne i32 %154, 0
  br i1 %155, label %156, label %161

156:                                              ; preds = %150
  %157 = load ptr, ptr %4, align 8
  %158 = getelementptr inbounds nuw %struct.ArrayType, ptr %157, i32 0, i32 2
  %159 = load i32, ptr %158, align 4
  %160 = sext i32 %159 to i64
  br label %170

161:                                              ; preds = %150
  %162 = load ptr, ptr %4, align 8
  %163 = getelementptr inbounds nuw %struct.ArrayType, ptr %162, i32 0, i32 1
  %164 = load i32, ptr %163, align 4
  %165 = sext i32 %164 to i64
  %166 = mul i64 8, %165
  %167 = add i64 16, %166
  %168 = add i64 %167, 7
  %169 = and i64 %168, -8
  br label %170

170:                                              ; preds = %161, %156
  %171 = phi i64 [ %160, %156 ], [ %169, %161 ]
  %172 = getelementptr inbounds nuw i8, ptr %151, i64 %171
  %173 = load ptr, ptr %7, align 8
  %174 = getelementptr inbounds nuw %struct.ArrayIteratorData, ptr %173, i32 0, i32 12
  store ptr %172, ptr %174, align 8
  %175 = load ptr, ptr %7, align 8
  %176 = getelementptr inbounds nuw %struct.ArrayIteratorData, ptr %175, i32 0, i32 13
  store i32 0, ptr %176, align 8
  %177 = load ptr, ptr %7, align 8
  call void @llvm.lifetime.end.p0(i64 8, ptr %7) #11
  ret ptr %177
}