; Function Attrs: nounwind uwtable
define dso_local ptr @array_create_iterator(ptr noundef %0, i32 noundef %1, ptr noundef readonly captures(address_is_null) %2) local_unnamed_addr #0 {
  %4 = tail call ptr @palloc0(i64 noundef 80) #18
  %5 = icmp slt i32 %1, 0
  br i1 %5, label %10, label %6

6:                                                ; preds = %3
  %7 = getelementptr inbounds nuw i8, ptr %0, i64 4
  %8 = load i32, ptr %7, align 4
  %9 = icmp sgt i32 %1, %8
  br i1 %9, label %10, label %13

10:                                               ; preds = %6, %3
  %11 = tail call zeroext i1 @errstart_cold(i32 noundef 21, ptr noundef null) #20
  tail call void @llvm.assume(i1 %11)
  %12 = tail call i32 (ptr, ...) @errmsg_internal(ptr noundef nonnull @.str.34) #18
  tail call void @errfinish(ptr noundef nonnull @.str.2, i32 noundef 4606, ptr noundef nonnull @__func__.array_create_iterator) #18
  unreachable

13:                                               ; preds = %6
  store ptr %0, ptr %4, align 8
  %14 = getelementptr inbounds nuw i8, ptr %0, i64 8
  %15 = load i32, ptr %14, align 4
  %.not = icmp eq i32 %15, 0
  br i1 %.not, label %22, label %16

16:                                               ; preds = %13
  %17 = getelementptr inbounds nuw i8, ptr %0, i64 16
  %18 = load i32, ptr %7, align 4
  %19 = sext i32 %18 to i64
  %20 = shl nsw i64 %19, 3
  %21 = getelementptr inbounds nuw i8, ptr %17, i64 %20
  br label %22

22:                                               ; preds = %13, %16
  %23 = phi ptr [ %21, %16 ], [ null, %13 ]
  %24 = getelementptr inbounds nuw i8, ptr %4, i64 8
  store ptr %23, ptr %24, align 8
  %25 = load i32, ptr %7, align 4
  %26 = getelementptr inbounds nuw i8, ptr %0, i64 16
  %27 = tail call i32 @ArrayGetNItems(i32 noundef %25, ptr noundef nonnull %26) #18
  %28 = getelementptr inbounds nuw i8, ptr %4, i64 16
  store i32 %27, ptr %28, align 8
  %.not50 = icmp eq ptr %2, null
  %29 = getelementptr inbounds nuw i8, ptr %4, i64 20
  br i1 %.not50, label %39, label %30

30:                                               ; preds = %22
  %31 = getelementptr inbounds nuw i8, ptr %2, i64 4
  %32 = load i16, ptr %31, align 4
  store i16 %32, ptr %29, align 4
  %33 = getelementptr inbounds nuw i8, ptr %2, i64 6
  %34 = load i8, ptr %33, align 2, !range !4, !noundef !5
  %35 = getelementptr inbounds nuw i8, ptr %4, i64 22
  store i8 %34, ptr %35, align 2
  %36 = getelementptr inbounds nuw i8, ptr %2, i64 7
  %37 = load i8, ptr %36, align 1
  %38 = getelementptr inbounds nuw i8, ptr %4, i64 23
  store i8 %37, ptr %38, align 1
  br label %44

39:                                               ; preds = %22
  %40 = getelementptr inbounds nuw i8, ptr %0, i64 12
  %41 = load i32, ptr %40, align 4
  %42 = getelementptr inbounds nuw i8, ptr %4, i64 22
  %43 = getelementptr inbounds nuw i8, ptr %4, i64 23
  tail call void @get_typlenbyvalalign(i32 noundef %41, ptr noundef nonnull %29, ptr noundef nonnull %42, ptr noundef nonnull %43) #18
  br label %44

44:                                               ; preds = %39, %30
  %45 = getelementptr inbounds nuw i8, ptr %4, i64 24
  store i32 %1, ptr %45, align 8
  %.not51 = icmp eq i32 %1, 0
  br i1 %.not51, label %71, label %46

46:                                               ; preds = %44
  %47 = load i32, ptr %7, align 4
  %48 = sext i32 %47 to i64
  %49 = getelementptr inbounds i32, ptr %26, i64 %48
  %50 = zext nneg i32 %1 to i64
  %51 = sub nsw i64 0, %50
  %52 = getelementptr inbounds i32, ptr %49, i64 %51
  %53 = getelementptr inbounds nuw i8, ptr %4, i64 32
  store ptr %52, ptr %53, align 8
  %54 = load i32, ptr %7, align 4
  %55 = sext i32 %54 to i64
  %56 = shl nsw i64 %55, 2
  %57 = getelementptr inbounds nuw i8, ptr %26, i64 %56
  %58 = getelementptr inbounds i32, ptr %57, i64 %55
  %59 = getelementptr inbounds i32, ptr %58, i64 %51
  %60 = getelementptr inbounds nuw i8, ptr %4, i64 40
  store ptr %59, ptr %60, align 8
  %61 = tail call i32 @ArrayGetNItems(i32 noundef %1, ptr noundef nonnull %52) #18
  %62 = getelementptr inbounds nuw i8, ptr %4, i64 28
  store i32 %61, ptr %62, align 4
  %63 = sext i32 %61 to i64
  %64 = shl nsw i64 %63, 3
  %65 = tail call ptr @palloc(i64 noundef %64) #18
  %66 = getelementptr inbounds nuw i8, ptr %4, i64 48
  store ptr %65, ptr %66, align 8
  %67 = load i32, ptr %62, align 4
  %68 = sext i32 %67 to i64
  %69 = tail call ptr @palloc(i64 noundef %68) #18
  %70 = getelementptr inbounds nuw i8, ptr %4, i64 56
  store ptr %69, ptr %70, align 8
  br label %71

71:                                               ; preds = %46, %44
  %72 = load i32, ptr %14, align 4
  %.not52 = icmp eq i32 %72, 0
  br i1 %.not52, label %75, label %73

73:                                               ; preds = %71
  %74 = sext i32 %72 to i64
  br label %81

75:                                               ; preds = %71
  %76 = load i32, ptr %7, align 4
  %77 = sext i32 %76 to i64
  %78 = shl nsw i64 %77, 3
  %79 = add nsw i64 %78, 23
  %80 = and i64 %79, -8
  br label %81

81:                                               ; preds = %75, %73
  %82 = phi i64 [ %74, %73 ], [ %80, %75 ]
  %83 = getelementptr inbounds nuw i8, ptr %0, i64 %82
  %84 = getelementptr inbounds nuw i8, ptr %4, i64 64
  store ptr %83, ptr %84, align 8
  %85 = getelementptr inbounds nuw i8, ptr %4, i64 72
  store i32 0, ptr %85, align 8
  ret ptr %4
}